target datalayout = "e-m:e-p270:32:32-p271:32:32-p272:64:64-i64:64-i128:128-f80:128-n8:16:32:64-S128"
target triple = "x86_64-pc-linux-gnu"

%struct.Amap_Man_t_ = type { ptr, ptr, float, float, i32, i32, ptr, ptr, ptr, ptr, ptr, ptr, ptr, ptr, [7 x i32], i32, i32, i32, ptr, ptr, ptr, ptr, ptr, ptr, ptr, ptr, i32, i32, i32, i32 }

; Function Attrs: nounwind uwtable
define ptr @Amap_ManDupCut(ptr noundef %0, ptr noundef %1) #0 {
  %3 = alloca ptr, align 8
  %4 = alloca ptr, align 8
  %5 = alloca ptr, align 8
  %6 = alloca i32, align 4
  store ptr %0, ptr %3, align 8, !tbaa !3
  store ptr %1, ptr %4, align 8, !tbaa !8
  call void @llvm.lifetime.start.p0(i64 8, ptr %5) #12
  call void @llvm.lifetime.start.p0(i64 4, ptr %6) #12
  %7 = load ptr, ptr %4, align 8, !tbaa !8
  %8 = load i32, ptr %7, align 4
  %9 = lshr i32 %8, 17
  %10 = zext i32 %9 to i64
  %11 = mul i64 4, %10
  %12 = add i64 4, %11
  %13 = trunc i64 %12 to i32
  store i32 %13, ptr %6, align 4, !tbaa !10
  %14 = load ptr, ptr %3, align 8, !tbaa !3
  %15 = getelementptr inbounds nuw %struct.Amap_Man_t_, ptr %14, i32 0, i32 11
  %16 = load ptr, ptr %15, align 8, !tbaa !12
  %17 = load i32, ptr %6, align 4, !tbaa !10
  %18 = call ptr @Aig_MmFlexEntryFetch(ptr noundef %16, i32 noundef %17)
  store ptr %18, ptr %5, align 8, !tbaa !8
  %19 = load ptr, ptr %5, align 8, !tbaa !8
  %20 = load ptr, ptr %4, align 8, !tbaa !8
  %21 = load i32, ptr %6, align 4, !tbaa !10
  %22 = sext i32 %21 to i64
  call void @llvm.memcpy.p0.p0.i64(ptr align 4 %19, ptr align 4 %20, i64 %22, i1 false)
  %23 = load ptr, ptr %5, align 8, !tbaa !8
  call void @llvm.lifetime.end.p0(i64 4, ptr %6) #12
  call void @llvm.lifetime.end.p0(i64 8, ptr %5) #12
  ret ptr %23
}