; Function Attrs: nounwind uwtable
define noundef ptr @Amap_ManDupCut(ptr noundef readonly captures(none) %0, ptr noundef readonly captures(none) %1) local_unnamed_addr #0 {
  %3 = load i32, ptr %1, align 4
  %4 = lshr i32 %3, 15
  %5 = and i32 %4, 131068
  %narrow = add nuw nsw i32 %5, 4
  %6 = getelementptr inbounds nuw i8, ptr %0, i64 72
  %7 = load ptr, ptr %6, align 8, !tbaa !3
  %8 = tail call ptr @Aig_MmFlexEntryFetch(ptr noundef %7, i32 noundef %narrow) #19
  %9 = zext nneg i32 %narrow to i64
  tail call void @llvm.memcpy.p0.p0.i64(ptr noundef nonnull align 4 dereferenceable(1) %8, ptr noundef nonnull align 4 dereferenceable(1) %1, i64 %9, i1 false)
  ret ptr %8
}